target datalayout = "e-m:e-p270:32:32-p271:32:32-p272:64:64-i64:64-i128:128-f80:128-n8:16:32:64-S128"
target triple = "x86_64-pc-linux-gnu"

%struct.ThreadData = type { ptr, ptr }
%struct.AVFilterLink = type { ptr, ptr, ptr, ptr, i32, i32, i32, i32, %struct.AVRational, i32, i32, i32, %struct.AVChannelLayout, %struct.AVRational, ptr, i32, %struct.AVFilterFormatsConfig, %struct.AVFilterFormatsConfig }
%struct.AVChannelLayout = type { i32, i32, %union.anon.1, ptr }
%union.anon.1 = type { i64 }
%struct.AVRational = type { i32, i32 }
%struct.AVFilterFormatsConfig = type { ptr, ptr, ptr, ptr, ptr }
%struct.AVFilterContext = type { ptr, ptr, ptr, ptr, ptr, i32, ptr, ptr, i32, ptr, ptr, i32, i32, ptr, ptr, ptr, ptr, i32, ptr, i32, i32 }
%struct.NContext = type { ptr, [4 x i32], [4 x i32], i32, [4 x i32], i32, i32, i32, i32, ptr }

; Function Attrs: nounwind uwtable
define internal i32 @filter_frame(ptr noundef %0, ptr noundef %1) #1 {
  %3 = alloca i32, align 4
  %4 = alloca ptr, align 8
  %5 = alloca ptr, align 8
  %6 = alloca ptr, align 8
  %7 = alloca ptr, align 8
  %8 = alloca ptr, align 8
  %9 = alloca %struct.ThreadData, align 8
  %10 = alloca ptr, align 8
  %11 = alloca i32, align 4
  store ptr %0, ptr %4, align 8, !tbaa !4
  store ptr %1, ptr %5, align 8, !tbaa !9
  call void @llvm.lifetime.start.p0(i64 8, ptr %6) #5
  %12 = load ptr, ptr %4, align 8, !tbaa !4
  %13 = getelementptr inbounds nuw %struct.AVFilterLink, ptr %12, i32 0, i32 2
  %14 = load ptr, ptr %13, align 8, !tbaa !11
  store ptr %14, ptr %6, align 8, !tbaa !23
  call void @llvm.lifetime.start.p0(i64 8, ptr %7) #5
  %15 = load ptr, ptr %6, align 8, !tbaa !23
  %16 = getelementptr inbounds nuw %struct.AVFilterContext, ptr %15, i32 0, i32 7
  %17 = load ptr, ptr %16, align 8, !tbaa !24
  %18 = getelementptr inbounds ptr, ptr %17, i64 0
  %19 = load ptr, ptr %18, align 8, !tbaa !4
  store ptr %19, ptr %7, align 8, !tbaa !4
  call void @llvm.lifetime.start.p0(i64 8, ptr %8) #5
  %20 = load ptr, ptr %6, align 8, !tbaa !23
  %21 = getelementptr inbounds nuw %struct.AVFilterContext, ptr %20, i32 0, i32 9
  %22 = load ptr, ptr %21, align 8, !tbaa !34
  store ptr %22, ptr %8, align 8, !tbaa !35
  call void @llvm.lifetime.start.p0(i64 16, ptr %9) #5
  call void @llvm.lifetime.start.p0(i64 8, ptr %10) #5
  %23 = load ptr, ptr %7, align 8, !tbaa !4
  %24 = load ptr, ptr %7, align 8, !tbaa !4
  %25 = getelementptr inbounds nuw %struct.AVFilterLink, ptr %24, i32 0, i32 6
  %26 = load i32, ptr %25, align 8, !tbaa !37
  %27 = load ptr, ptr %7, align 8, !tbaa !4
  %28 = getelementptr inbounds nuw %struct.AVFilterLink, ptr %27, i32 0, i32 7
  %29 = load i32, ptr %28, align 4, !tbaa !38
  %30 = call ptr @ff_get_video_buffer(ptr noundef %23, i32 noundef %26, i32 noundef %29)
  store ptr %30, ptr %10, align 8, !tbaa !9
  %31 = load ptr, ptr %10, align 8, !tbaa !9
  %32 = icmp ne ptr %31, null
  br i1 %32, label %34, label %33

33:                                               ; preds = %2
  call void @av_frame_free(ptr noundef %5)
  store i32 -12, ptr %3, align 4
  store i32 1, ptr %11, align 4
  br label %64

34:                                               ; preds = %2
  %35 = load ptr, ptr %10, align 8, !tbaa !9
  %36 = load ptr, ptr %5, align 8, !tbaa !9
  %37 = call i32 @av_frame_copy_props(ptr noundef %35, ptr noundef %36)
  %38 = load ptr, ptr %5, align 8, !tbaa !9
  %39 = getelementptr inbounds nuw %struct.ThreadData, ptr %9, i32 0, i32 0
  store ptr %38, ptr %39, align 8, !tbaa !39
  %40 = load ptr, ptr %10, align 8, !tbaa !9
  %41 = getelementptr inbounds nuw %struct.ThreadData, ptr %9, i32 0, i32 1
  store ptr %40, ptr %41, align 8, !tbaa !41
  %42 = load ptr, ptr %6, align 8, !tbaa !23
  %43 = load ptr, ptr %8, align 8, !tbaa !35
  %44 = getelementptr inbounds nuw %struct.NContext, ptr %43, i32 0, i32 1
  %45 = getelementptr inbounds [4 x i32], ptr %44, i64 0, i64 1
  %46 = load i32, ptr %45, align 4, !tbaa !42
  %47 = load ptr, ptr %6, align 8, !tbaa !23
  %48 = call i32 @ff_filter_get_nb_threads(ptr noundef %47) #6
  %49 = icmp sgt i32 %46, %48
  br i1 %49, label %50, label %53

50:                                               ; preds = %34
  %51 = load ptr, ptr %6, align 8, !tbaa !23
  %52 = call i32 @ff_filter_get_nb_threads(ptr noundef %51) #6
  br label %58

53:                                               ; preds = %34
  %54 = load ptr, ptr %8, align 8, !tbaa !35
  %55 = getelementptr inbounds nuw %struct.NContext, ptr %54, i32 0, i32 1
  %56 = getelementptr inbounds [4 x i32], ptr %55, i64 0, i64 1
  %57 = load i32, ptr %56, align 4, !tbaa !42
  br label %58

58:                                               ; preds = %53, %50
  %59 = phi i32 [ %52, %50 ], [ %57, %53 ]
  %60 = call i32 @ff_filter_execute(ptr noundef %42, ptr noundef @filter_slice, ptr noundef %9, ptr noundef null, i32 noundef %59)
  call void @av_frame_free(ptr noundef %5)
  %61 = load ptr, ptr %7, align 8, !tbaa !4
  %62 = load ptr, ptr %10, align 8, !tbaa !9
  %63 = call i32 @ff_filter_frame(ptr noundef %61, ptr noundef %62)
  store i32 %63, ptr %3, align 4
  store i32 1, ptr %11, align 4
  br label %64

64:                                               ; preds = %58, %33
  call void @llvm.lifetime.end.p0(i64 8, ptr %10) #5
  call void @llvm.lifetime.end.p0(i64 16, ptr %9) #5
  call void @llvm.lifetime.end.p0(i64 8, ptr %8) #5
  call void @llvm.lifetime.end.p0(i64 8, ptr %7) #5
  call void @llvm.lifetime.end.p0(i64 8, ptr %6) #5
  %65 = load i32, ptr %3, align 4
  ret i32 %65
}